target datalayout = "e-m:e-p270:32:32-p271:32:32-p272:64:64-i64:64-f80:128-n8:16:32:64-S128"
target triple = "x86_64-pc-linux-gnu"

@.str = private unnamed_addr constant [3 x i8] c"%d\00", align 1
@.str.1 = private unnamed_addr constant [3 x i8] c"NO\00", align 1
@.str.2 = private unnamed_addr constant [4 x i8] c"%d\0A\00", align 1
@.str.3 = private unnamed_addr constant [4 x i8] c"%s\0A\00", align 1

; Function Attrs: noinline nounwind uwtable
define dso_local i32 @main() #0 {
  %1 = alloca i32, align 4
  %2 = alloca i32, align 4
  %3 = alloca i32, align 4
  %4 = alloca i32, align 4
  %5 = alloca i32, align 4
  %6 = alloca i32, align 4
  %7 = alloca i32, align 4
  %8 = alloca i32, align 4
  %9 = alloca i32, align 4
  %10 = alloca [500 x i8], align 16
  %11 = alloca [500 x [500 x i8]], align 16
  %12 = alloca [500 x i32], align 16
  %13 = alloca i32, align 4
  %14 = alloca i32, align 4
  store i32 0, i32* %1, align 4
  store i32 0, i32* %3, align 4
  store i32 0, i32* %4, align 4
  store i32 0, i32* %5, align 4
  store i32 0, i32* %6, align 4
  store i32 0, i32* %7, align 4
  store i32 0, i32* %8, align 4
  store i32 1, i32* %9, align 4
  %15 = call i32 (i8*, ...) @__isoc99_scanf(i8* getelementptr inbounds ([3 x i8], [3 x i8]* @.str, i64 0, i64 0), i32* %2)
  %16 = call i32 @getchar()
  %17 = getelementptr inbounds [500 x i8], [500 x i8]* %10, i64 0, i64 0
  %18 = call i32 (i8*, ...) bitcast (i32 (...)* @gets to i32 (i8*, ...)*)(i8* %17)
  store i32 -1, i32* %13, align 4
  store i32 0, i32* %3, align 4
  br label %19

19:                                               ; preds = %26, %0
  %20 = load i32, i32* %3, align 4
  %21 = icmp slt i32 %20, 500
  br i1 %21, label %22, label %29

22:                                               ; preds = %19
  %23 = load i32, i32* %3, align 4
  %24 = sext i32 %23 to i64
  %25 = getelementptr inbounds [500 x i32], [500 x i32]* %12, i64 0, i64 %24
  store i32 0, i32* %25, align 4
  br label %26

26:                                               ; preds = %22
  %27 = load i32, i32* %3, align 4
  %28 = add nsw i32 %27, 1
  store i32 %28, i32* %3, align 4
  br label %19

29:                                               ; preds = %19
  store i32 0, i32* %3, align 4
  br label %30

30:                                               ; preds = %47, %29
  %31 = load i32, i32* %3, align 4
  %32 = load i32, i32* %2, align 4
  %33 = icmp slt i32 %31, %32
  br i1 %33, label %34, label %50

34:                                               ; preds = %30
  %35 = load i32, i32* %3, align 4
  %36 = sext i32 %35 to i64
  %37 = getelementptr inbounds [500 x i8], [500 x i8]* %10, i64 0, i64 %36
  %38 = load i8, i8* %37, align 1
  %39 = load i32, i32* %4, align 4
  %40 = sext i32 %39 to i64
  %41 = getelementptr inbounds [500 x [500 x i8]], [500 x [500 x i8]]* %11, i64 0, i64 %40
  %42 = load i32, i32* %5, align 4
  %43 = sext i32 %42 to i64
  %44 = getelementptr inbounds [500 x i8], [500 x i8]* %41, i64 0, i64 %43
  store i8 %38, i8* %44, align 1
  %45 = load i32, i32* %5, align 4
  %46 = add nsw i32 %45, 1
  store i32 %46, i32* %5, align 4
  br label %47

47:                                               ; preds = %34
  %48 = load i32, i32* %3, align 4
  %49 = add nsw i32 %48, 1
  store i32 %49, i32* %3, align 4
  br label %30

50:                                               ; preds = %30
  %51 = load i32, i32* %4, align 4
  %52 = sext i32 %51 to i64
  %53 = getelementptr inbounds [500 x [500 x i8]], [500 x [500 x i8]]* %11, i64 0, i64 %52
  %54 = load i32, i32* %5, align 4
  %55 = sext i32 %54 to i64
  %56 = getelementptr inbounds [500 x i8], [500 x i8]* %53, i64 0, i64 %55
  store i8 0, i8* %56, align 1
  store i32 0, i32* %5, align 4
  store i32 0, i32* %3, align 4
  br label %57

57:                                               ; preds = %155, %50
  %58 = load i32, i32* %3, align 4
  %59 = load i32, i32* %2, align 4
  %60 = add nsw i32 %58, %59
  %61 = sub nsw i32 %60, 1
  %62 = sext i32 %61 to i64
  %63 = getelementptr inbounds [500 x i8], [500 x i8]* %10, i64 0, i64 %62
  %64 = load i8, i8* %63, align 1
  %65 = sext i8 %64 to i32
  %66 = icmp ne i32 %65, 0
  br i1 %66, label %67, label %158

67:                                               ; preds = %57
  store i32 0, i32* %6, align 4
  br label %68

68:                                               ; preds = %106, %67
  %69 = load i32, i32* %6, align 4
  %70 = load i32, i32* %4, align 4
  %71 = icmp sle i32 %69, %70
  br i1 %71, label %72, label %109

72:                                               ; preds = %68
  store i32 -1, i32* %13, align 4
  store i32 0, i32* %7, align 4
  br label %73

73:                                               ; preds = %96, %72
  %74 = load i32, i32* %7, align 4
  %75 = load i32, i32* %2, align 4
  %76 = icmp slt i32 %74, %75
  br i1 %76, label %77, label %99

77:                                               ; preds = %73
  store i32 1, i32* %9, align 4
  %78 = load i32, i32* %3, align 4
  %79 = load i32, i32* %7, align 4
  %80 = add nsw i32 %78, %79
  %81 = sext i32 %80 to i64
  %82 = getelementptr inbounds [500 x i8], [500 x i8]* %10, i64 0, i64 %81
  %83 = load i8, i8* %82, align 1
  %84 = sext i8 %83 to i32
  %85 = load i32, i32* %6, align 4
  %86 = sext i32 %85 to i64
  %87 = getelementptr inbounds [500 x [500 x i8]], [500 x [500 x i8]]* %11, i64 0, i64 %86
  %88 = load i32, i32* %7, align 4
  %89 = sext i32 %88 to i64
  %90 = getelementptr inbounds [500 x i8], [500 x i8]* %87, i64 0, i64 %89
  %91 = load i8, i8* %90, align 1
  %92 = sext i8 %91 to i32
  %93 = icmp ne i32 %84, %92
  br i1 %93, label %94, label %95

94:                                               ; preds = %77
  store i32 0, i32* %9, align 4
  br label %100

95:                                               ; preds = %77
  br label %96

96:                                               ; preds = %95
  %97 = load i32, i32* %7, align 4
  %98 = add nsw i32 %97, 1
  store i32 %98, i32* %7, align 4
  br label %73

99:                                               ; preds = %73
  br label %100

100:                                              ; preds = %99, %94
  %101 = load i32, i32* %9, align 4
  %102 = icmp eq i32 %101, 1
  br i1 %102, label %103, label %105

103:                                              ; preds = %100
  %104 = load i32, i32* %6, align 4
  store i32 %104, i32* %13, align 4
  br label %110

105:                                              ; preds = %100
  br label %106

106:                                              ; preds = %105
  %107 = load i32, i32* %6, align 4
  %108 = add nsw i32 %107, 1
  store i32 %108, i32* %6, align 4
  br label %68

109:                                              ; preds = %68
  br label %110

110:                                              ; preds = %109, %103
  %111 = load i32, i32* %13, align 4
  %112 = icmp eq i32 %111, -1
  br i1 %112, label %113, label %148

113:                                              ; preds = %110
  %114 = load i32, i32* %4, align 4
  %115 = add nsw i32 %114, 1
  store i32 %115, i32* %4, align 4
  %116 = load i32, i32* %4, align 4
  %117 = sext i32 %116 to i64
  %118 = getelementptr inbounds [500 x i32], [500 x i32]* %12, i64 0, i64 %117
  %119 = load i32, i32* %118, align 4
  %120 = add nsw i32 %119, 1
  store i32 %120, i32* %118, align 4
  store i32 0, i32* %8, align 4
  br label %121

121:                                              ; preds = %138, %113
  %122 = load i32, i32* %8, align 4
  %123 = load i32, i32* %2, align 4
  %124 = icmp slt i32 %122, %123
  br i1 %124, label %125, label %141

125:                                              ; preds = %121
  %126 = load i32, i32* %3, align 4
  %127 = load i32, i32* %8, align 4
  %128 = add nsw i32 %126, %127
  %129 = sext i32 %128 to i64
  %130 = getelementptr inbounds [500 x i8], [500 x i8]* %10, i64 0, i64 %129
  %131 = load i8, i8* %130, align 1
  %132 = load i32, i32* %4, align 4
  %133 = sext i32 %132 to i64
  %134 = getelementptr inbounds [500 x [500 x i8]], [500 x [500 x i8]]* %11, i64 0, i64 %133
  %135 = load i32, i32* %8, align 4
  %136 = sext i32 %135 to i64
  %137 = getelementptr inbounds [500 x i8], [500 x i8]* %134, i64 0, i64 %136
  store i8 %131, i8* %137, align 1
  br label %138

138:                                              ; preds = %125
  %139 = load i32, i32* %8, align 4
  %140 = add nsw i32 %139, 1
  store i32 %140, i32* %8, align 4
  br label %121

141:                                              ; preds = %121
  %142 = load i32, i32* %4, align 4
  %143 = sext i32 %142 to i64
  %144 = getelementptr inbounds [500 x [500 x i8]], [500 x [500 x i8]]* %11, i64 0, i64 %143
  %145 = load i32, i32* %8, align 4
  %146 = sext i32 %145 to i64
  %147 = getelementptr inbounds [500 x i8], [500 x i8]* %144, i64 0, i64 %146
  store i8 0, i8* %147, align 1
  br label %154

148:                                              ; preds = %110
  %149 = load i32, i32* %13, align 4
  %150 = sext i32 %149 to i64
  %151 = getelementptr inbounds [500 x i32], [500 x i32]* %12, i64 0, i64 %150
  %152 = load i32, i32* %151, align 4
  %153 = add nsw i32 %152, 1
  store i32 %153, i32* %151, align 4
  br label %154

154:                                              ; preds = %148, %141
  br label %155

155:                                              ; preds = %154
  %156 = load i32, i32* %3, align 4
  %157 = add nsw i32 %156, 1
  store i32 %157, i32* %3, align 4
  br label %57

158:                                              ; preds = %57
  %159 = getelementptr inbounds [500 x i32], [500 x i32]* %12, i64 0, i64 0
  %160 = load i32, i32* %159, align 16
  store i32 %160, i32* %14, align 4
  store i32 0, i32* %3, align 4
  br label %161

161:                                              ; preds = %178, %158
  %162 = load i32, i32* %3, align 4
  %163 = load i32, i32* %4, align 4
  %164 = icmp sle i32 %162, %163
  br i1 %164, label %165, label %181

165:                                              ; preds = %161
  %166 = load i32, i32* %3, align 4
  %167 = sext i32 %166 to i64
  %168 = getelementptr inbounds [500 x i32], [500 x i32]* %12, i64 0, i64 %167
  %169 = load i32, i32* %168, align 4
  %170 = load i32, i32* %14, align 4
  %171 = icmp sge i32 %169, %170
  br i1 %171, label %172, label %177

172:                                              ; preds = %165
  %173 = load i32, i32* %3, align 4
  %174 = sext i32 %173 to i64
  %175 = getelementptr inbounds [500 x i32], [500 x i32]* %12, i64 0, i64 %174
  %176 = load i32, i32* %175, align 4
  store i32 %176, i32* %14, align 4
  br label %177

177:                                              ; preds = %172, %165
  br label %178

178:                                              ; preds = %177
  %179 = load i32, i32* %3, align 4
  %180 = add nsw i32 %179, 1
  store i32 %180, i32* %3, align 4
  br label %161

181:                                              ; preds = %161
  %182 = load i32, i32* %14, align 4
  %183 = icmp eq i32 %182, 1
  br i1 %183, label %184, label %186

184:                                              ; preds = %181
  %185 = call i32 (i8*, ...) @printf(i8* getelementptr inbounds ([3 x i8], [3 x i8]* @.str.1, i64 0, i64 0))
  br label %211

186:                                              ; preds = %181
  %187 = load i32, i32* %14, align 4
  %188 = call i32 (i8*, ...) @printf(i8* getelementptr inbounds ([4 x i8], [4 x i8]* @.str.2, i64 0, i64 0), i32 %187)
  store i32 0, i32* %3, align 4
  br label %189

189:                                              ; preds = %207, %186
  %190 = load i32, i32* %3, align 4
  %191 = load i32, i32* %4, align 4
  %192 = icmp sle i32 %190, %191
  br i1 %192, label %193, label %210

193:                                              ; preds = %189
  %194 = load i32, i32* %3, align 4
  %195 = sext i32 %194 to i64
  %196 = getelementptr inbounds [500 x i32], [500 x i32]* %12, i64 0, i64 %195
  %197 = load i32, i32* %196, align 4
  %198 = load i32, i32* %14, align 4
  %199 = icmp eq i32 %197, %198
  br i1 %199, label %200, label %206

200:                                              ; preds = %193
  %201 = load i32, i32* %3, align 4
  %202 = sext i32 %201 to i64
  %203 = getelementptr inbounds [500 x [500 x i8]], [500 x [500 x i8]]* %11, i64 0, i64 %202
  %204 = getelementptr inbounds [500 x i8], [500 x i8]* %203, i64 0, i64 0
  %205 = call i32 (i8*, ...) @printf(i8* getelementptr inbounds ([4 x i8], [4 x i8]* @.str.3, i64 0, i64 0), i8* %204)
  br label %206

206:                                              ; preds = %200, %193
  br label %207

207:                                              ; preds = %206
  %208 = load i32, i32* %3, align 4
  %209 = add nsw i32 %208, 1
  store i32 %209, i32* %3, align 4
  br label %189

210:                                              ; preds = %189
  br label %211

211:                                              ; preds = %210, %184
  ret i32 0
}